target datalayout = "e-m:e-p270:32:32-p271:32:32-p272:64:64-i64:64-i128:128-f80:128-n8:16:32:64-S128"
target triple = "x86_64-pc-linux-gnu"

%struct.H5RS_str_t = type { ptr, ptr, i64, i64, i8, i32 }
%struct.__va_list_tag = type { i32, i32, ptr, ptr }

@H5RS_init_g = global i8 0, align 1
@H5_libterm_g = external global i8, align 1
@.str = private unnamed_addr constant [98 x i8] c"generated/home/dtcxzyw/WorkSpace/Projects/compilers/llvm-opt-benchmark/bench/hdf5/hdf5/src/H5RS.c\00", align 1
@H5E_RS_g = external global i64, align 8
@H5E_CANTALLOC_g = external global i64, align 8
@.str.1 = private unnamed_addr constant [25 x i8] c"memory allocation failed\00", align 1
@__func__.H5RS_asprintf_cat = private unnamed_addr constant [18 x i8] c"H5RS_asprintf_cat\00", align 1
@H5E_CANTINIT_g = external global i64, align 8
@.str.3 = private unnamed_addr constant [36 x i8] c"can't initialize ref-counted string\00", align 1
@H5E_CANTRESIZE_g = external global i64, align 8
@.str.4 = private unnamed_addr constant [39 x i8] c"can't resize ref-counted string buffer\00", align 1
@__func__.H5RS__resize_for_append = private unnamed_addr constant [24 x i8] c"H5RS__resize_for_append\00", align 1
@H5_str_buf_blk_free_list = internal global { i8, [3 x i8], i32, i32, [4 x i8], i64, ptr, ptr } { i8 0, [3 x i8] zeroinitializer, i32 0, i32 0, [4 x i8] zeroinitializer, i64 0, ptr @.str.7, ptr null }, align 8

; Function Attrs: nounwind uwtable
define internal i32 @H5RS__resize_for_append(ptr noundef %0, i64 noundef %1) #0 {
  %3 = alloca ptr, align 8
  %4 = alloca i64, align 8
  %5 = alloca i32, align 4
  %6 = alloca i8, align 1
  store ptr %0, ptr %3, align 8, !tbaa !8
  store i64 %1, ptr %4, align 8, !tbaa !14
  call void @llvm.lifetime.start.p0(i64 4, ptr %5) #8
  store i32 0, ptr %5, align 4, !tbaa !19
  call void @llvm.lifetime.start.p0(i64 1, ptr %6) #8
  store i8 0, ptr %6, align 1, !tbaa !10
  %7 = load i8, ptr @H5RS_init_g, align 1, !tbaa !10, !range !12, !noundef !13
  %8 = trunc i8 %7 to i1
  br i1 %8, label %13, label %9

9:                                                ; preds = %2
  %10 = load i8, ptr @H5_libterm_g, align 1, !tbaa !10, !range !12, !noundef !13
  %11 = trunc i8 %10 to i1
  %12 = xor i1 %11, true
  br label %13

13:                                               ; preds = %9, %2
  %14 = phi i1 [ true, %2 ], [ %12, %9 ]
  %15 = xor i1 %14, true
  %16 = xor i1 %15, true
  %17 = zext i1 %16 to i32
  %18 = sext i32 %17 to i64
  %19 = call i64 @llvm.expect.i64(i64 %18, i64 1)
  %20 = icmp ne i64 %19, 0
  br i1 %20, label %21, label %89

21:                                               ; preds = %13
  %22 = load i64, ptr %4, align 8, !tbaa !14
  %23 = load ptr, ptr %3, align 8, !tbaa !8
  %24 = getelementptr inbounds nuw %struct.H5RS_str_t, ptr %23, i32 0, i32 3
  %25 = load i64, ptr %24, align 8, !tbaa !20
  %26 = load ptr, ptr %3, align 8, !tbaa !8
  %27 = getelementptr inbounds nuw %struct.H5RS_str_t, ptr %26, i32 0, i32 2
  %28 = load i64, ptr %27, align 8, !tbaa !26
  %29 = sub i64 %25, %28
  %30 = icmp uge i64 %22, %29
  br i1 %30, label %31, label %87

31:                                               ; preds = %21
  br label %32

32:                                               ; preds = %42, %31
  %33 = load i64, ptr %4, align 8, !tbaa !14
  %34 = load ptr, ptr %3, align 8, !tbaa !8
  %35 = getelementptr inbounds nuw %struct.H5RS_str_t, ptr %34, i32 0, i32 3
  %36 = load i64, ptr %35, align 8, !tbaa !20
  %37 = load ptr, ptr %3, align 8, !tbaa !8
  %38 = getelementptr inbounds nuw %struct.H5RS_str_t, ptr %37, i32 0, i32 2
  %39 = load i64, ptr %38, align 8, !tbaa !26
  %40 = sub i64 %36, %39
  %41 = icmp uge i64 %33, %40
  br i1 %41, label %42, label %47

42:                                               ; preds = %32
  %43 = load ptr, ptr %3, align 8, !tbaa !8
  %44 = getelementptr inbounds nuw %struct.H5RS_str_t, ptr %43, i32 0, i32 3
  %45 = load i64, ptr %44, align 8, !tbaa !20
  %46 = mul i64 %45, 2
  store i64 %46, ptr %44, align 8, !tbaa !20
  br label %32, !llvm.loop !29

47:                                               ; preds = %32
  %48 = load ptr, ptr %3, align 8, !tbaa !8
  %49 = getelementptr inbounds nuw %struct.H5RS_str_t, ptr %48, i32 0, i32 0
  %50 = load ptr, ptr %49, align 8, !tbaa !23
  %51 = load ptr, ptr %3, align 8, !tbaa !8
  %52 = getelementptr inbounds nuw %struct.H5RS_str_t, ptr %51, i32 0, i32 3
  %53 = load i64, ptr %52, align 8, !tbaa !20
  %54 = call ptr @H5FL_blk_realloc(ptr noundef @H5_str_buf_blk_free_list, ptr noundef %50, i64 noundef %53)
  %55 = load ptr, ptr %3, align 8, !tbaa !8
  %56 = getelementptr inbounds nuw %struct.H5RS_str_t, ptr %55, i32 0, i32 0
  store ptr %54, ptr %56, align 8, !tbaa !23
  %57 = icmp eq ptr null, %54
  br i1 %57, label %58, label %77

58:                                               ; preds = %47
  br label %59

59:                                               ; preds = %58
  br label %60

60:                                               ; preds = %59
  br label %61

61:                                               ; preds = %60
  %62 = load i64, ptr @H5E_RS_g, align 8, !tbaa !14
  %63 = load i64, ptr @H5E_CANTALLOC_g, align 8, !tbaa !14
  %64 = call i32 (ptr, ptr, i32, i64, i64, ptr, ...) @H5E_printf_stack(ptr noundef @.str, ptr noundef @__func__.H5RS__resize_for_append, i32 noundef 241, i64 noundef %62, i64 noundef %63, ptr noundef @.str.1)
  br label %65

65:                                               ; preds = %61
  br label %66

66:                                               ; preds = %65
  store i8 1, ptr %6, align 1, !tbaa !10
  %67 = load i8, ptr %6, align 1, !tbaa !10, !range !12, !noundef !13
  %68 = trunc i8 %67 to i1
  %69 = zext i1 %68 to i8
  store i8 %69, ptr %6, align 1, !tbaa !10
  br label %70

70:                                               ; preds = %66
  br label %71

71:                                               ; preds = %70
  br label %72

72:                                               ; preds = %71
  store i32 -1, ptr %5, align 4, !tbaa !19
  br label %88

73:                                               ; No predecessors!
  br label %74

74:                                               ; preds = %73
  br label %75

75:                                               ; preds = %74
  br label %76

76:                                               ; preds = %75
  br label %77

77:                                               ; preds = %76, %47
  %78 = load ptr, ptr %3, align 8, !tbaa !8
  %79 = getelementptr inbounds nuw %struct.H5RS_str_t, ptr %78, i32 0, i32 0
  %80 = load ptr, ptr %79, align 8, !tbaa !23
  %81 = load ptr, ptr %3, align 8, !tbaa !8
  %82 = getelementptr inbounds nuw %struct.H5RS_str_t, ptr %81, i32 0, i32 2
  %83 = load i64, ptr %82, align 8, !tbaa !26
  %84 = getelementptr inbounds nuw i8, ptr %80, i64 %83
  %85 = load ptr, ptr %3, align 8, !tbaa !8
  %86 = getelementptr inbounds nuw %struct.H5RS_str_t, ptr %85, i32 0, i32 1
  store ptr %84, ptr %86, align 8, !tbaa !24
  br label %87

87:                                               ; preds = %77, %21
  br label %88

88:                                               ; preds = %87, %72
  br label %89

89:                                               ; preds = %88, %13
  %90 = load i32, ptr %5, align 4, !tbaa !19
  call void @llvm.lifetime.end.p0(i64 1, ptr %6) #8
  call void @llvm.lifetime.end.p0(i64 4, ptr %5) #8
  ret i32 %90
}

; Function Attrs: nounwind uwtable
define i32 @H5RS_asprintf_cat(ptr noundef %0, ptr noundef %1, ...) #0 {
  %3 = alloca ptr, align 8
  %4 = alloca ptr, align 8
  %5 = alloca [1 x %struct.__va_list_tag], align 16
  %6 = alloca [1 x %struct.__va_list_tag], align 16
  %7 = alloca i64, align 8
  %8 = alloca i32, align 4
  %9 = alloca i8, align 1
  store ptr %0, ptr %3, align 8, !tbaa !8
  store ptr %1, ptr %4, align 8, !tbaa !3
  call void @llvm.lifetime.start.p0(i64 24, ptr %5) #8
  call void @llvm.lifetime.start.p0(i64 24, ptr %6) #8
  call void @llvm.lifetime.start.p0(i64 8, ptr %7) #8
  call void @llvm.lifetime.start.p0(i64 4, ptr %8) #8
  store i32 0, ptr %8, align 4, !tbaa !19
  call void @llvm.lifetime.start.p0(i64 1, ptr %9) #8
  store i8 0, ptr %9, align 1, !tbaa !10
  %10 = load i8, ptr @H5RS_init_g, align 1, !tbaa !10, !range !12, !noundef !13
  %11 = trunc i8 %10 to i1
  br i1 %11, label %16, label %12

12:                                               ; preds = %2
  %13 = load i8, ptr @H5_libterm_g, align 1, !tbaa !10, !range !12, !noundef !13
  %14 = trunc i8 %13 to i1
  %15 = xor i1 %14, true
  br label %16

16:                                               ; preds = %12, %2
  %17 = phi i1 [ false, %2 ], [ %15, %12 ]
  %18 = xor i1 %17, true
  %19 = xor i1 %18, true
  %20 = zext i1 %19 to i32
  %21 = sext i32 %20 to i64
  %22 = call i64 @llvm.expect.i64(i64 %21, i64 0)
  %23 = icmp ne i64 %22, 0
  br i1 %23, label %24, label %25

24:                                               ; preds = %16
  store i8 1, ptr @H5RS_init_g, align 1, !tbaa !10
  br label %25

25:                                               ; preds = %24, %16
  %26 = load i8, ptr @H5RS_init_g, align 1, !tbaa !10, !range !12, !noundef !13
  %27 = trunc i8 %26 to i1
  br i1 %27, label %32, label %28

28:                                               ; preds = %25
  %29 = load i8, ptr @H5_libterm_g, align 1, !tbaa !10, !range !12, !noundef !13
  %30 = trunc i8 %29 to i1
  %31 = xor i1 %30, true
  br label %32

32:                                               ; preds = %28, %25
  %33 = phi i1 [ true, %25 ], [ %31, %28 ]
  %34 = xor i1 %33, true
  %35 = xor i1 %34, true
  %36 = zext i1 %35 to i32
  %37 = sext i32 %36 to i64
  %38 = call i64 @llvm.expect.i64(i64 %37, i64 1)
  %39 = icmp ne i64 %38, 0
  br i1 %39, label %40, label %132

40:                                               ; preds = %32
  %41 = load ptr, ptr %3, align 8, !tbaa !8
  %42 = call i32 @H5RS__prepare_for_append(ptr noundef %41)
  %43 = icmp slt i32 %42, 0
  br i1 %43, label %44, label %63

44:                                               ; preds = %40
  br label %45

45:                                               ; preds = %44
  br label %46

46:                                               ; preds = %45
  br label %47

47:                                               ; preds = %46
  %48 = load i64, ptr @H5E_RS_g, align 8, !tbaa !14
  %49 = load i64, ptr @H5E_CANTINIT_g, align 8, !tbaa !14
  %50 = call i32 (ptr, ptr, i32, i64, i64, ptr, ...) @H5E_printf_stack(ptr noundef @.str, ptr noundef @__func__.H5RS_asprintf_cat, i32 noundef 374, i64 noundef %48, i64 noundef %49, ptr noundef @.str.3)
  br label %51

51:                                               ; preds = %47
  br label %52

52:                                               ; preds = %51
  store i8 1, ptr %9, align 1, !tbaa !10
  %53 = load i8, ptr %9, align 1, !tbaa !10, !range !12, !noundef !13
  %54 = trunc i8 %53 to i1
  %55 = zext i1 %54 to i8
  store i8 %55, ptr %9, align 1, !tbaa !10
  br label %56

56:                                               ; preds = %52
  br label %57

57:                                               ; preds = %56
  br label %58

58:                                               ; preds = %57
  store i32 -1, ptr %8, align 4, !tbaa !19
  br label %131

59:                                               ; No predecessors!
  br label %60

60:                                               ; preds = %59
  br label %61

61:                                               ; preds = %60
  br label %62

62:                                               ; preds = %61
  br label %63

63:                                               ; preds = %62, %40
  %64 = getelementptr inbounds [1 x %struct.__va_list_tag], ptr %5, i64 0, i64 0
  call void @llvm.va_start.p0(ptr %64)
  %65 = getelementptr inbounds [1 x %struct.__va_list_tag], ptr %6, i64 0, i64 0
  %66 = getelementptr inbounds [1 x %struct.__va_list_tag], ptr %5, i64 0, i64 0
  call void @llvm.va_copy.p0(ptr %65, ptr %66)
  br label %67

67:                                               ; preds = %114, %63
  %68 = load ptr, ptr %3, align 8, !tbaa !8
  %69 = getelementptr inbounds nuw %struct.H5RS_str_t, ptr %68, i32 0, i32 1
  %70 = load ptr, ptr %69, align 8, !tbaa !24
  %71 = load ptr, ptr %3, align 8, !tbaa !8
  %72 = getelementptr inbounds nuw %struct.H5RS_str_t, ptr %71, i32 0, i32 3
  %73 = load i64, ptr %72, align 8, !tbaa !20
  %74 = load ptr, ptr %3, align 8, !tbaa !8
  %75 = getelementptr inbounds nuw %struct.H5RS_str_t, ptr %74, i32 0, i32 2
  %76 = load i64, ptr %75, align 8, !tbaa !26
  %77 = sub i64 %73, %76
  %78 = load ptr, ptr %4, align 8, !tbaa !3
  %79 = getelementptr inbounds [1 x %struct.__va_list_tag], ptr %5, i64 0, i64 0
  %80 = call i32 @vsnprintf(ptr noundef %70, i64 noundef %77, ptr noundef %78, ptr noundef %79) #8
  %81 = sext i32 %80 to i64
  store i64 %81, ptr %7, align 8, !tbaa !14
  %82 = load ptr, ptr %3, align 8, !tbaa !8
  %83 = getelementptr inbounds nuw %struct.H5RS_str_t, ptr %82, i32 0, i32 3
  %84 = load i64, ptr %83, align 8, !tbaa !20
  %85 = load ptr, ptr %3, align 8, !tbaa !8
  %86 = getelementptr inbounds nuw %struct.H5RS_str_t, ptr %85, i32 0, i32 2
  %87 = load i64, ptr %86, align 8, !tbaa !26
  %88 = sub i64 %84, %87
  %89 = icmp uge i64 %81, %88
  br i1 %89, label %90, label %118

90:                                               ; preds = %67
  %91 = load ptr, ptr %3, align 8, !tbaa !8
  %92 = load i64, ptr %7, align 8, !tbaa !14
  %93 = call i32 @H5RS__resize_for_append(ptr noundef %91, i64 noundef %92)
  %94 = icmp slt i32 %93, 0
  br i1 %94, label %95, label %114

95:                                               ; preds = %90
  br label %96

96:                                               ; preds = %95
  br label %97

97:                                               ; preds = %96
  br label %98

98:                                               ; preds = %97
  %99 = load i64, ptr @H5E_RS_g, align 8, !tbaa !14
  %100 = load i64, ptr @H5E_CANTRESIZE_g, align 8, !tbaa !14
  %101 = call i32 (ptr, ptr, i32, i64, i64, ptr, ...) @H5E_printf_stack(ptr noundef @.str, ptr noundef @__func__.H5RS_asprintf_cat, i32 noundef 382, i64 noundef %99, i64 noundef %100, ptr noundef @.str.4)
  br label %102

102:                                              ; preds = %98
  br label %103

103:                                              ; preds = %102
  store i8 1, ptr %9, align 1, !tbaa !10
  %104 = load i8, ptr %9, align 1, !tbaa !10, !range !12, !noundef !13
  %105 = trunc i8 %104 to i1
  %106 = zext i1 %105 to i8
  store i8 %106, ptr %9, align 1, !tbaa !10
  br label %107

107:                                              ; preds = %103
  br label %108

108:                                              ; preds = %107
  br label %109

109:                                              ; preds = %108
  store i32 -1, ptr %8, align 4, !tbaa !19
  br label %131

110:                                              ; No predecessors!
  br label %111

111:                                              ; preds = %110
  br label %112

112:                                              ; preds = %111
  br label %113

113:                                              ; preds = %112
  br label %114

114:                                              ; preds = %113, %90
  %115 = getelementptr inbounds [1 x %struct.__va_list_tag], ptr %5, i64 0, i64 0
  call void @llvm.va_end.p0(ptr %115)
  %116 = getelementptr inbounds [1 x %struct.__va_list_tag], ptr %5, i64 0, i64 0
  %117 = getelementptr inbounds [1 x %struct.__va_list_tag], ptr %6, i64 0, i64 0
  call void @llvm.va_copy.p0(ptr %116, ptr %117)
  br label %67, !llvm.loop !28

118:                                              ; preds = %67
  %119 = load i64, ptr %7, align 8, !tbaa !14
  %120 = load ptr, ptr %3, align 8, !tbaa !8
  %121 = getelementptr inbounds nuw %struct.H5RS_str_t, ptr %120, i32 0, i32 2
  %122 = load i64, ptr %121, align 8, !tbaa !26
  %123 = add i64 %122, %119
  store i64 %123, ptr %121, align 8, !tbaa !26
  %124 = load i64, ptr %7, align 8, !tbaa !14
  %125 = load ptr, ptr %3, align 8, !tbaa !8
  %126 = getelementptr inbounds nuw %struct.H5RS_str_t, ptr %125, i32 0, i32 1
  %127 = load ptr, ptr %126, align 8, !tbaa !24
  %128 = getelementptr inbounds nuw i8, ptr %127, i64 %124
  store ptr %128, ptr %126, align 8, !tbaa !24
  %129 = getelementptr inbounds [1 x %struct.__va_list_tag], ptr %5, i64 0, i64 0
  call void @llvm.va_end.p0(ptr %129)
  %130 = getelementptr inbounds [1 x %struct.__va_list_tag], ptr %6, i64 0, i64 0
  call void @llvm.va_end.p0(ptr %130)
  br label %131

131:                                              ; preds = %118, %109, %58
  br label %132

132:                                              ; preds = %131, %32
  %133 = load i32, ptr %8, align 4, !tbaa !19
  call void @llvm.lifetime.end.p0(i64 1, ptr %9) #8
  call void @llvm.lifetime.end.p0(i64 4, ptr %8) #8
  call void @llvm.lifetime.end.p0(i64 8, ptr %7) #8
  call void @llvm.lifetime.end.p0(i64 24, ptr %6) #8
  call void @llvm.lifetime.end.p0(i64 24, ptr %5) #8
  ret i32 %133
}