; Function Attrs: nounwind uwtable
define range(i32 -1, 1) i32 @H5RS_asprintf_cat(ptr noundef captures(none) %0, ptr noundef readonly captures(none) %1, ...) local_unnamed_addr #0 {
  %3 = alloca [1 x %struct.__va_list_tag], align 16
  %4 = alloca [1 x %struct.__va_list_tag], align 16
  call void @llvm.lifetime.start.p0(i64 24, ptr nonnull %3) #11
  call void @llvm.lifetime.start.p0(i64 24, ptr nonnull %4) #11
  %5 = load i8, ptr @H5RS_init_g, align 1, !tbaa !3, !range !7, !noundef !8
  %6 = trunc nuw i8 %5 to i1
  %7 = load i8, ptr @H5_libterm_g, align 1, !range !7
  %8 = trunc nuw i8 %7 to i1
  %9 = select i1 %6, i1 true, i1 %8
  br i1 %9, label %10, label %.thread, !prof !9

.thread:                                          ; preds = %2
  store i8 1, ptr @H5RS_init_g, align 1, !tbaa !3
  br label %13

10:                                               ; preds = %2
  %11 = xor i1 %8, true
  %12 = select i1 %6, i1 true, i1 %11
  br i1 %12, label %13, label %72, !prof !10

13:                                               ; preds = %.thread, %10
  %14 = tail call fastcc i32 @H5RS__prepare_for_append(ptr noundef %0)
  %15 = icmp slt i32 %14, 0
  br i1 %15, label %16, label %20

16:                                               ; preds = %13
  %17 = load i64, ptr @H5E_RS_g, align 8, !tbaa !11
  %18 = load i64, ptr @H5E_CANTINIT_g, align 8, !tbaa !11
  %19 = tail call i32 (ptr, ptr, i32, i64, i64, ptr, ...) @H5E_printf_stack(ptr noundef nonnull @.str, ptr noundef nonnull @__func__.H5RS_asprintf_cat, i32 noundef 374, i64 noundef %17, i64 noundef %18, ptr noundef nonnull @.str.3) #11
  br label %72

20:                                               ; preds = %13
  call void @llvm.va_start.p0(ptr nonnull %3)
  call void @llvm.va_copy.p0(ptr nonnull %4, ptr nonnull %3)
  %21 = getelementptr inbounds nuw i8, ptr %0, i64 8
  %22 = getelementptr inbounds nuw i8, ptr %0, i64 24
  %23 = getelementptr inbounds nuw i8, ptr %0, i64 16
  %24 = load ptr, ptr %21, align 8, !tbaa !21
  %25 = load i64, ptr %22, align 8, !tbaa !15
  %26 = load i64, ptr %23, align 8, !tbaa !23
  %27 = sub i64 %25, %26
  %28 = call i32 @vsnprintf(ptr noundef %24, i64 noundef %27, ptr noundef %1, ptr noundef nonnull %3) #11
  %29 = sext i32 %28 to i64
  %30 = load i64, ptr %22, align 8, !tbaa !15
  %31 = load i64, ptr %23, align 8, !tbaa !23
  %32 = sub i64 %30, %31
  %.not25 = icmp ugt i64 %32, %29
  br i1 %.not25, label %._crit_edge, label %.lr.ph

.lr.ph:                                           ; preds = %20, %59
  %33 = phi i64 [ %67, %59 ], [ %31, %20 ]
  %34 = phi i64 [ %66, %59 ], [ %30, %20 ]
  %35 = phi i64 [ %65, %59 ], [ %29, %20 ]
  %36 = load i8, ptr @H5RS_init_g, align 1, !tbaa !3, !range !7, !noundef !8
  %37 = trunc nuw i8 %36 to i1
  %38 = load i8, ptr @H5_libterm_g, align 1, !range !7
  %39 = trunc nuw i8 %38 to i1
  %40 = xor i1 %39, true
  %41 = select i1 %37, i1 true, i1 %40
  br i1 %41, label %.lr.ph.i, label %59, !prof !9

.lr.ph.i:                                         ; preds = %.lr.ph, %.lr.ph.i
  %42 = phi i64 [ %43, %.lr.ph.i ], [ %34, %.lr.ph ]
  %43 = shl i64 %42, 1
  %44 = sub i64 %43, %33
  %.not15.i = icmp ugt i64 %44, %35
  br i1 %.not15.i, label %45, label %.lr.ph.i, !llvm.loop !27

45:                                               ; preds = %.lr.ph.i
  store i64 %43, ptr %22, align 8, !tbaa !15
  %46 = load ptr, ptr %0, align 8, !tbaa !20
  %47 = call ptr @H5FL_blk_realloc(ptr noundef nonnull @H5_str_buf_blk_free_list, ptr noundef %46, i64 noundef %43) #11
  store ptr %47, ptr %0, align 8, !tbaa !20
  %48 = icmp eq ptr %47, null
  br i1 %48, label %52, label %49

49:                                               ; preds = %45
  %50 = load i64, ptr %23, align 8, !tbaa !23
  %51 = getelementptr inbounds nuw i8, ptr %47, i64 %50
  store ptr %51, ptr %21, align 8, !tbaa !21
  br label %59

52:                                               ; preds = %45
  %53 = load i64, ptr @H5E_RS_g, align 8, !tbaa !11
  %54 = load i64, ptr @H5E_CANTALLOC_g, align 8, !tbaa !11
  %55 = call i32 (ptr, ptr, i32, i64, i64, ptr, ...) @H5E_printf_stack(ptr noundef nonnull @.str, ptr noundef nonnull @__func__.H5RS__resize_for_append, i32 noundef 241, i64 noundef %53, i64 noundef %54, ptr noundef nonnull @.str.1) #11
  %56 = load i64, ptr @H5E_RS_g, align 8, !tbaa !11
  %57 = load i64, ptr @H5E_CANTRESIZE_g, align 8, !tbaa !11
  %58 = call i32 (ptr, ptr, i32, i64, i64, ptr, ...) @H5E_printf_stack(ptr noundef nonnull @.str, ptr noundef nonnull @__func__.H5RS_asprintf_cat, i32 noundef 382, i64 noundef %56, i64 noundef %57, ptr noundef nonnull @.str.4) #11
  br label %72

59:                                               ; preds = %49, %.lr.ph
  call void @llvm.va_end.p0(ptr nonnull %3)
  call void @llvm.va_copy.p0(ptr nonnull %3, ptr nonnull %4)
  %60 = load ptr, ptr %21, align 8, !tbaa !21
  %61 = load i64, ptr %22, align 8, !tbaa !15
  %62 = load i64, ptr %23, align 8, !tbaa !23
  %63 = sub i64 %61, %62
  %64 = call i32 @vsnprintf(ptr noundef %60, i64 noundef %63, ptr noundef %1, ptr noundef nonnull %3) #11
  %65 = sext i32 %64 to i64
  %66 = load i64, ptr %22, align 8, !tbaa !15
  %67 = load i64, ptr %23, align 8, !tbaa !23
  %68 = sub i64 %66, %67
  %.not = icmp ugt i64 %68, %65
  br i1 %.not, label %._crit_edge, label %.lr.ph, !llvm.loop !28

._crit_edge:                                      ; preds = %59, %20
  %.lcssa19 = phi i64 [ %29, %20 ], [ %65, %59 ]
  %.lcssa17 = phi i64 [ %31, %20 ], [ %67, %59 ]
  %69 = add i64 %.lcssa17, %.lcssa19
  store i64 %69, ptr %23, align 8, !tbaa !23
  %70 = load ptr, ptr %21, align 8, !tbaa !21
  %71 = getelementptr inbounds nuw i8, ptr %70, i64 %.lcssa19
  store ptr %71, ptr %21, align 8, !tbaa !21
  call void @llvm.va_end.p0(ptr nonnull %3)
  call void @llvm.va_end.p0(ptr nonnull %4)
  br label %72

72:                                               ; preds = %16, %52, %._crit_edge, %10
  %.0 = phi i32 [ -1, %16 ], [ -1, %52 ], [ 0, %._crit_edge ], [ 0, %10 ]
  call void @llvm.lifetime.end.p0(i64 24, ptr nonnull %4) #11
  call void @llvm.lifetime.end.p0(i64 24, ptr nonnull %3) #11
  ret i32 %.0
}